; Function Attrs: mustprogress nounwind uwtable
define internal void @"_ZN4absl12lts_2024072222internal_any_invocable23RemoteManagerNontrivialIZN9grpc_core11ChannelInit18FilterRegistration5IfNotENS0_12AnyInvocableIKFbRKNS3_11ChannelArgsEEEEE3$_0EEvNS1_14FunctionToCallEPNS1_15TypeErasedStateESF_"(i1 noundef zeroext %0, ptr noundef readonly captures(none) %1, ptr noundef writeonly captures(none) %2) #11 {
  %4 = load ptr, ptr %1, align 16, !tbaa !33
  br i1 %0, label %6, label %5

5:                                                ; preds = %3
  store ptr %4, ptr %2, align 16, !tbaa !33
  br label %11

6:                                                ; preds = %3
  %7 = icmp eq ptr %4, null
  br i1 %7, label %11, label %8

8:                                                ; preds = %6
  %9 = getelementptr inbounds nuw i8, ptr %4, i64 16
  %10 = load ptr, ptr %9, align 16, !tbaa !30
  tail call void %10(i1 noundef zeroext true, ptr noundef nonnull align 16 dereferenceable(32) %4, ptr noundef nonnull align 16 dereferenceable(32) %4) #34
  tail call void @_ZdlPvm(ptr noundef nonnull %4, i64 noundef 32) #33
  br label %11

11:                                               ; preds = %6, %8, %5
  ret void
}